---
triple:          'x86_64-apple-darwin'
binary-path:     main
relocations:
  - { offsetInCU: 0x4981, offset: 0x4981, size: 0x8, addend: 0x0, symName: __ZNSt3__124__put_character_sequenceB7v160006IcNS_11char_traitsIcEEEERNS_13basic_ostreamIT_T0_EES7_PKS4_m, symObjAddr: 0x1F30, symBinAddr: 0x100005E80, symSize: 0x1F0 }
  - { offsetInCU: 0x64F9, offset: 0x64F9, size: 0x8, addend: 0x0, symName: __ZNSt3__122__make_exception_guardB7v160006INS_6vectorI5TokenNS_9allocatorIS2_EEE16__destroy_vectorEEENS_28__exception_guard_exceptionsIT_EES8_, symObjAddr: 0x8B0, symBinAddr: 0x100004800, symSize: 0x40 }
  - { offsetInCU: 0x652E, offset: 0x652E, size: 0x8, addend: 0x0, symName: __ZNSt3__119__debug_db_insert_cB7v160006INS_6vectorI5TokenNS_9allocatorIS2_EEEEEEvPT_, symObjAddr: 0x920, symBinAddr: 0x100004870, symSize: 0x10 }
  - { offsetInCU: 0x655F, offset: 0x655F, size: 0x8, addend: 0x0, symName: __ZNSt3__119__allocate_at_leastB7v160006INS_9allocatorI5TokenEEEENS_19__allocation_resultINS_16allocator_traitsIT_E7pointerEEERS6_m, symObjAddr: 0xC60, symBinAddr: 0x100004BB0, symSize: 0x40 }
  - { offsetInCU: 0x65A2, offset: 0x65A2, size: 0x8, addend: 0x0, symName: __ZNSt3__13minB7v160006ImEERKT_S3_S3_, symObjAddr: 0xD80, symBinAddr: 0x100004CD0, symSize: 0x30 }
  - { offsetInCU: 0x67CF, offset: 0x67CF, size: 0x8, addend: 0x0, symName: __ZNSt3__13minB7v160006ImNS_6__lessImmEEEERKT_S5_S5_T0_, symObjAddr: 0xDF0, symBinAddr: 0x100004D40, symSize: 0x50 }
  - { offsetInCU: 0x6864, offset: 0x6864, size: 0x8, addend: 0x0, symName: __ZNSt3__120__throw_length_errorB7v160006EPKc, symObjAddr: 0xEA0, symBinAddr: 0x100004DF0, symSize: 0x70 }
  - { offsetInCU: 0x688C, offset: 0x688C, size: 0x8, addend: 0x0, symName: __ZNSt3__117__libcpp_allocateB7v160006Emm, symObjAddr: 0x1010, symBinAddr: 0x100004F60, symSize: 0x60 }
  - { offsetInCU: 0x68E6, offset: 0x68E6, size: 0x8, addend: 0x0, symName: __ZNSt3__124__is_overaligned_for_newB7v160006Em, symObjAddr: 0x1070, symBinAddr: 0x100004FC0, symSize: 0x20 }
  - { offsetInCU: 0x6914, offset: 0x6914, size: 0x8, addend: 0x0, symName: __ZNSt3__121__libcpp_operator_newB7v160006IJmSt11align_val_tEEEPvDpT_, symObjAddr: 0x1090, symBinAddr: 0x100004FE0, symSize: 0x30 }
  - { offsetInCU: 0x6961, offset: 0x6961, size: 0x8, addend: 0x0, symName: __ZNSt3__121__libcpp_operator_newB7v160006IJmEEEPvDpT_, symObjAddr: 0x10C0, symBinAddr: 0x100005010, symSize: 0x20 }
  - { offsetInCU: 0x699A, offset: 0x699A, size: 0x8, addend: 0x0, symName: __ZNSt3__112__to_addressB7v160006I5TokenEEPT_S3_, symObjAddr: 0x11C0, symBinAddr: 0x100005110, symSize: 0x10 }
  - { offsetInCU: 0x69CF, offset: 0x69CF, size: 0x8, addend: 0x0, symName: __ZNSt3__130__uninitialized_allocator_copyB7v160006INS_9allocatorI5TokenEEPS2_S4_S4_EET2_RT_T0_T1_S5_, symObjAddr: 0x1250, symBinAddr: 0x1000051A0, symSize: 0x100 }
  - { offsetInCU: 0x6A6D, offset: 0x6A6D, size: 0x8, addend: 0x0, symName: __ZNSt3__122__make_exception_guardB7v160006INS_29_AllocatorDestroyRangeReverseINS_9allocatorI5TokenEEPS3_EEEENS_28__exception_guard_exceptionsIT_EES8_, symObjAddr: 0x13B0, symBinAddr: 0x100005300, symSize: 0x60 }
  - { offsetInCU: 0x6AA2, offset: 0x6AA2, size: 0x8, addend: 0x0, symName: __ZNSt3__119__allocator_destroyB7v160006INS_9allocatorI5TokenEENS_16reverse_iteratorIPS2_EES6_EEvRT_T0_T1_, symObjAddr: 0x16C0, symBinAddr: 0x100005610, symSize: 0x70 }
  - { offsetInCU: 0x6B05, offset: 0x6B05, size: 0x8, addend: 0x0, symName: __ZNSt3__1neB7v160006IP5TokenS2_EEbRKNS_16reverse_iteratorIT_EERKNS3_IT0_EE, symObjAddr: 0x1760, symBinAddr: 0x1000056B0, symSize: 0x40 }
  - { offsetInCU: 0x6B51, offset: 0x6B51, size: 0x8, addend: 0x0, symName: __ZNSt3__112__to_addressB7v160006INS_16reverse_iteratorIP5TokenEEvEENS_5decayIDTclsr19__to_address_helperIT_EE6__callclsr3stdE7declvalIRKS6_EEEEE4typeES8_, symObjAddr: 0x17D0, symBinAddr: 0x100005720, symSize: 0x20 }
  - { offsetInCU: 0x6BB0, offset: 0x6BB0, size: 0x8, addend: 0x0, symName: __ZNSt3__118__debug_db_erase_cB7v160006INS_6vectorI5TokenNS_9allocatorIS2_EEEEEEvPT_, symObjAddr: 0x1AB0, symBinAddr: 0x100005A00, symSize: 0x10 }
  - { offsetInCU: 0x6BE1, offset: 0x6BE1, size: 0x8, addend: 0x0, symName: __ZNSt3__119__libcpp_deallocateB7v160006EPvmm, symObjAddr: 0x1BE0, symBinAddr: 0x100005B30, symSize: 0x60 }
  - { offsetInCU: 0x6C46, offset: 0x6C46, size: 0x8, addend: 0x0, symName: __ZNSt3__127__do_deallocate_handle_sizeB7v160006IJSt11align_val_tEEEvPvmDpT_, symObjAddr: 0x1C40, symBinAddr: 0x100005B90, symSize: 0x30 }
  - { offsetInCU: 0x6C99, offset: 0x6C99, size: 0x8, addend: 0x0, symName: __ZNSt3__127__do_deallocate_handle_sizeB7v160006IJEEEvPvmDpT_, symObjAddr: 0x1C70, symBinAddr: 0x100005BC0, symSize: 0x20 }
  - { offsetInCU: 0x6CD7, offset: 0x6CD7, size: 0x8, addend: 0x0, symName: __ZNSt3__124__libcpp_operator_deleteB7v160006IJPvSt11align_val_tEEEvDpT_, symObjAddr: 0x1C90, symBinAddr: 0x100005BE0, symSize: 0x30 }
  - { offsetInCU: 0x6D20, offset: 0x6D20, size: 0x8, addend: 0x0, symName: __ZNSt3__124__libcpp_operator_deleteB7v160006IJPvEEEvDpT_, symObjAddr: 0x1CC0, symBinAddr: 0x100005C10, symSize: 0x20 }
  - { offsetInCU: 0x6D55, offset: 0x6D55, size: 0x8, addend: 0x0, symName: __ZNSt3__1lsB7v160006INS_11char_traitsIcEEEERNS_13basic_ostreamIcT_EES6_PKc, symObjAddr: 0x1DC0, symBinAddr: 0x100005D10, symSize: 0x40 }
  - { offsetInCU: 0x6D9B, offset: 0x6D9B, size: 0x8, addend: 0x0, symName: __ZNSt3__14endlB7v160006IcNS_11char_traitsIcEEEERNS_13basic_ostreamIT_T0_EES7_, symObjAddr: 0x1E20, symBinAddr: 0x100005D70, symSize: 0x50 }
  - { offsetInCU: 0x6DDB, offset: 0x6DDB, size: 0x8, addend: 0x0, symName: __ZNSt3__116__pad_and_outputB7v160006IcNS_11char_traitsIcEEEENS_19ostreambuf_iteratorIT_T0_EES6_PKS4_S8_S8_RNS_8ios_baseES4_, symObjAddr: 0x2170, symBinAddr: 0x1000060C0, symSize: 0x220 }
  - { offsetInCU: 0x6EAB, offset: 0x6EAB, size: 0x8, addend: 0x0, symName: __ZNSt3__119__debug_db_insert_cB7v160006INS_12basic_stringIcNS_11char_traitsIcEENS_9allocatorIcEEEEEEvPT_, symObjAddr: 0x2600, symBinAddr: 0x100006550, symSize: 0x10 }
  - { offsetInCU: 0x6EDC, offset: 0x6EDC, size: 0x8, addend: 0x0, symName: __ZNSt3__112__to_addressB7v160006IcEEPT_S2_, symObjAddr: 0x26A0, symBinAddr: 0x1000065F0, symSize: 0x10 }
  - { offsetInCU: 0x6F44, offset: 0x6F44, size: 0x8, addend: 0x0, symName: __ZNSt3__19use_facetB7v160006INS_5ctypeIcEEEERKT_RKNS_6localeE, symObjAddr: 0x2930, symBinAddr: 0x100006880, symSize: 0x30 }
  - { offsetInCU: 0x7413, offset: 0x7413, size: 0x8, addend: 0x0, symName: __ZNSt3__118__constexpr_strlenB7v160006EPKc, symObjAddr: 0x29C0, symBinAddr: 0x100006910, symSize: 0x20 }
  - { offsetInCU: 0x743F, offset: 0x743F, size: 0x8, addend: 0x0, symName: __ZNSt3__120__throw_out_of_rangeB7v160006EPKc, symObjAddr: 0x2A70, symBinAddr: 0x1000069C0, symSize: 0x70 }
  - { offsetInCU: 0x7485, offset: 0x7485, size: 0x8, addend: 0x0, symName: __ZNSt3__1miB7v160006IPK5TokenS3_EEDTmicldtfp_4baseEcldtfp0_4baseEERKNS_11__wrap_iterIT_EERKNS5_IT0_EE, symObjAddr: 0x2C50, symBinAddr: 0x100006BA0, symSize: 0x40 }
  - { offsetInCU: 0x74D1, offset: 0x74D1, size: 0x8, addend: 0x0, symName: __ZNSt3__14moveB7v160006IP5TokenS2_EET0_T_S4_S3_, symObjAddr: 0x2D20, symBinAddr: 0x100006C70, symSize: 0x40 }
  - { offsetInCU: 0x752B, offset: 0x752B, size: 0x8, addend: 0x0, symName: __ZNSt3__16__moveB7v160006INS_17_ClassicAlgPolicyEP5TokenS3_S3_EENS_4pairIT0_T2_EES5_T1_S6_, symObjAddr: 0x2F10, symBinAddr: 0x100006E60, symSize: 0x40 }
  - { offsetInCU: 0x7597, offset: 0x7597, size: 0x8, addend: 0x0, symName: __ZNSt3__123__dispatch_copy_or_moveB7v160006INS_17_ClassicAlgPolicyENS_11__move_loopIS1_EENS_14__move_trivialEP5TokenS6_S6_EENS_4pairIT2_T4_EES8_T3_S9_, symObjAddr: 0x2F50, symBinAddr: 0x100006EA0, symSize: 0x40 }
  - { offsetInCU: 0x7615, offset: 0x7615, size: 0x8, addend: 0x0, symName: __ZNSt3__121__unwrap_and_dispatchB7v160006INS_10__overloadINS_11__move_loopINS_17_ClassicAlgPolicyEEENS_14__move_trivialEEEP5TokenS8_S8_Li0EEENS_4pairIT0_T2_EESA_T1_SB_, symObjAddr: 0x2F90, symBinAddr: 0x100006EE0, symSize: 0xB0 }
  - { offsetInCU: 0x76A4, offset: 0x76A4, size: 0x8, addend: 0x0, symName: __ZNSt3__114__unwrap_rangeB7v160006IP5TokenS2_EENS_4pairIT0_S4_EET_S6_, symObjAddr: 0x3040, symBinAddr: 0x100006F90, symSize: 0x50 }
  - { offsetInCU: 0x781F, offset: 0x781F, size: 0x8, addend: 0x0, symName: __ZNSt3__113__unwrap_iterB7v160006IP5TokenNS_18__unwrap_iter_implIS2_Lb1EEELi0EEEDTclsrT0_8__unwrapclsr3stdE7declvalIT_EEEES6_, symObjAddr: 0x3110, symBinAddr: 0x100007060, symSize: 0x20 }
  - { offsetInCU: 0x7863, offset: 0x7863, size: 0x8, addend: 0x0, symName: __ZNSt3__19make_pairB7v160006IP5TokenS2_EENS_4pairINS_18__unwrap_ref_decayIT_E4typeENS4_IT0_E4typeEEEOS5_OS8_, symObjAddr: 0x3130, symBinAddr: 0x100007080, symSize: 0x30 }
  - { offsetInCU: 0x78B2, offset: 0x78B2, size: 0x8, addend: 0x0, symName: __ZNSt3__114__rewrap_rangeB7v160006IP5TokenS2_EET_S3_T0_, symObjAddr: 0x3160, symBinAddr: 0x1000070B0, symSize: 0x30 }
  - { offsetInCU: 0x78FE, offset: 0x78FE, size: 0x8, addend: 0x0, symName: __ZNSt3__113__rewrap_iterB7v160006IP5TokenS2_NS_18__unwrap_iter_implIS2_Lb1EEEEET_S5_T0_, symObjAddr: 0x3190, symBinAddr: 0x1000070E0, symSize: 0x40 }
  - { offsetInCU: 0x7A10, offset: 0x7A10, size: 0x8, addend: 0x0, symName: __ZNSt3__130__uninitialized_allocator_copyB7v160006INS_9allocatorI5TokenEEPKS2_S5_PS2_EET2_RT_T0_T1_S7_, symObjAddr: 0x3A30, symBinAddr: 0x100007980, symSize: 0x100 }
  - { offsetInCU: 0x7E19, offset: 0x7E19, size: 0x8, addend: 0x0, symName: __ZSt28__throw_bad_array_new_lengthB7v160006v, symObjAddr: 0xFD0, symBinAddr: 0x100004F20, symSize: 0x40 }
  - { offsetInCU: 0xA7E2, offset: 0xA7E2, size: 0x8, addend: 0x0, symName: _main, symObjAddr: 0x0, symBinAddr: 0x100003F50, symSize: 0x4F0 }
  - { offsetInCU: 0xA820, offset: 0xA820, size: 0x8, addend: 0x0, symName: __ZNSt3__112basic_stringIcNS_11char_traitsIcEENS_9allocatorIcEEEC1B7v160006IDnEEPKc, symObjAddr: 0x4F0, symBinAddr: 0x100004440, symSize: 0x30 }
  - { offsetInCU: 0xA85E, offset: 0xA85E, size: 0x8, addend: 0x0, symName: __ZN5TokenC1E9TokenTypeNSt3__112basic_stringIcNS1_11char_traitsIcEENS1_9allocatorIcEEEEi, symObjAddr: 0x520, symBinAddr: 0x100004470, symSize: 0x30 }
  - { offsetInCU: 0xA8B3, offset: 0xA8B3, size: 0x8, addend: 0x0, symName: __ZNSt3__16vectorI5TokenNS_9allocatorIS1_EEEC1B7v160006ESt16initializer_listIS1_E, symObjAddr: 0x550, symBinAddr: 0x1000044A0, symSize: 0x30 }
  - { offsetInCU: 0xA8EE, offset: 0xA8EE, size: 0x8, addend: 0x0, symName: __ZN5TokenD1Ev, symObjAddr: 0x580, symBinAddr: 0x1000044D0, symSize: 0x20 }
  - { offsetInCU: 0xA91A, offset: 0xA91A, size: 0x8, addend: 0x0, symName: __ZN6ParserC1ERKNSt3__16vectorI5TokenNS0_9allocatorIS2_EEEE, symObjAddr: 0x5A0, symBinAddr: 0x1000044F0, symSize: 0x30 }
  - { offsetInCU: 0xA952, offset: 0xA952, size: 0x8, addend: 0x0, symName: __ZN6Parser6schemeEv, symObjAddr: 0x5D0, symBinAddr: 0x100004520, symSize: 0x60 }
  - { offsetInCU: 0xA978, offset: 0xA978, size: 0x8, addend: 0x0, symName: __ZN6ParserD1Ev, symObjAddr: 0x630, symBinAddr: 0x100004580, symSize: 0x20 }
  - { offsetInCU: 0xA9A4, offset: 0xA9A4, size: 0x8, addend: 0x0, symName: __ZNSt3__16vectorI5TokenNS_9allocatorIS1_EEED1B7v160006Ev, symObjAddr: 0x650, symBinAddr: 0x1000045A0, symSize: 0x20 }
  - { offsetInCU: 0xA9CE, offset: 0xA9CE, size: 0x8, addend: 0x0, symName: __ZN5TokenC2E9TokenTypeNSt3__112basic_stringIcNS1_11char_traitsIcEENS1_9allocatorIcEEEEi, symObjAddr: 0x670, symBinAddr: 0x1000045C0, symSize: 0x50 }
  - { offsetInCU: 0xAA23, offset: 0xAA23, size: 0x8, addend: 0x0, symName: __ZN5TokenD2Ev, symObjAddr: 0x6C0, symBinAddr: 0x100004610, symSize: 0x20 }
  - { offsetInCU: 0xAA4F, offset: 0xAA4F, size: 0x8, addend: 0x0, symName: __ZN6ParserC2ERKNSt3__16vectorI5TokenNS0_9allocatorIS2_EEEE, symObjAddr: 0x6E0, symBinAddr: 0x100004630, symSize: 0x30 }
  - { offsetInCU: 0xAA87, offset: 0xAA87, size: 0x8, addend: 0x0, symName: __ZNSt3__16vectorI5TokenNS_9allocatorIS1_EEEC1ERKS4_, symObjAddr: 0x710, symBinAddr: 0x100004660, symSize: 0x30 }
  - { offsetInCU: 0xAAC2, offset: 0xAAC2, size: 0x8, addend: 0x0, symName: __ZNSt3__16vectorI5TokenNS_9allocatorIS1_EEEC2ERKS4_, symObjAddr: 0x740, symBinAddr: 0x100004690, symSize: 0x110 }
  - { offsetInCU: 0xAB2C, offset: 0xAB2C, size: 0x8, addend: 0x0, symName: __ZNSt3__116allocator_traitsINS_9allocatorI5TokenEEE37select_on_container_copy_constructionB7v160006IS3_vvEES3_RKS3_, symObjAddr: 0x850, symBinAddr: 0x1000047A0, symSize: 0x10 }
  - { offsetInCU: 0xAB5B, offset: 0xAB5B, size: 0x8, addend: 0x0, symName: __ZNKSt3__16vectorI5TokenNS_9allocatorIS1_EEE7__allocB7v160006Ev, symObjAddr: 0x860, symBinAddr: 0x1000047B0, symSize: 0x20 }
  - { offsetInCU: 0xAB8B, offset: 0xAB8B, size: 0x8, addend: 0x0, symName: __ZNSt3__117__compressed_pairIP5TokenNS_9allocatorIS1_EEEC1B7v160006IDnS4_EEOT_OT0_, symObjAddr: 0x880, symBinAddr: 0x1000047D0, symSize: 0x30 }
  - { offsetInCU: 0xABE3, offset: 0xABE3, size: 0x8, addend: 0x0, symName: __ZNSt3__16vectorI5TokenNS_9allocatorIS1_EEE16__destroy_vectorC1ERS4_, symObjAddr: 0x8F0, symBinAddr: 0x100004840, symSize: 0x30 }
  - { offsetInCU: 0xAC1C, offset: 0xAC1C, size: 0x8, addend: 0x0, symName: __ZNKSt3__16vectorI5TokenNS_9allocatorIS1_EEE4sizeB7v160006Ev, symObjAddr: 0x930, symBinAddr: 0x100004880, symSize: 0x30 }
  - { offsetInCU: 0xAC42, offset: 0xAC42, size: 0x8, addend: 0x0, symName: __ZNSt3__16vectorI5TokenNS_9allocatorIS1_EEE11__vallocateB7v160006Em, symObjAddr: 0x960, symBinAddr: 0x1000048B0, symSize: 0xA0 }
  - { offsetInCU: 0xAC86, offset: 0xAC86, size: 0x8, addend: 0x0, symName: __ZNSt3__16vectorI5TokenNS_9allocatorIS1_EEE18__construct_at_endIPS1_Li0EEEvT_S7_m, symObjAddr: 0xA00, symBinAddr: 0x100004950, symSize: 0x90 }
  - { offsetInCU: 0xACF9, offset: 0xACF9, size: 0x8, addend: 0x0, symName: __ZNSt3__128__exception_guard_exceptionsINS_6vectorI5TokenNS_9allocatorIS2_EEE16__destroy_vectorEE10__completeB7v160006Ev, symObjAddr: 0xA90, symBinAddr: 0x1000049E0, symSize: 0x20 }
  - { offsetInCU: 0xAD1F, offset: 0xAD1F, size: 0x8, addend: 0x0, symName: __ZNSt3__128__exception_guard_exceptionsINS_6vectorI5TokenNS_9allocatorIS2_EEE16__destroy_vectorEED1B7v160006Ev, symObjAddr: 0xAB0, symBinAddr: 0x100004A00, symSize: 0x20 }
  - { offsetInCU: 0xAD49, offset: 0xAD49, size: 0x8, addend: 0x0, symName: __ZNKSt3__117__compressed_pairIP5TokenNS_9allocatorIS1_EEE6secondB7v160006Ev, symObjAddr: 0xAD0, symBinAddr: 0x100004A20, symSize: 0x20 }
  - { offsetInCU: 0xAD6F, offset: 0xAD6F, size: 0x8, addend: 0x0, symName: __ZNKSt3__122__compressed_pair_elemINS_9allocatorI5TokenEELi1ELb1EE5__getB7v160006Ev, symObjAddr: 0xAF0, symBinAddr: 0x100004A40, symSize: 0x10 }
  - { offsetInCU: 0xAD95, offset: 0xAD95, size: 0x8, addend: 0x0, symName: __ZNSt3__117__compressed_pairIP5TokenNS_9allocatorIS1_EEEC2B7v160006IDnS4_EEOT_OT0_, symObjAddr: 0xB00, symBinAddr: 0x100004A50, symSize: 0x40 }
  - { offsetInCU: 0xADED, offset: 0xADED, size: 0x8, addend: 0x0, symName: __ZNSt3__122__compressed_pair_elemIP5TokenLi0ELb0EEC2B7v160006IDnvEEOT_, symObjAddr: 0xB40, symBinAddr: 0x100004A90, symSize: 0x20 }
  - { offsetInCU: 0xAE2F, offset: 0xAE2F, size: 0x8, addend: 0x0, symName: __ZNSt3__122__compressed_pair_elemINS_9allocatorI5TokenEELi1ELb1EEC2B7v160006IS3_vEEOT_, symObjAddr: 0xB60, symBinAddr: 0x100004AB0, symSize: 0x10 }
  - { offsetInCU: 0xAE71, offset: 0xAE71, size: 0x8, addend: 0x0, symName: __ZNSt3__128__exception_guard_exceptionsINS_6vectorI5TokenNS_9allocatorIS2_EEE16__destroy_vectorEEC1B7v160006ES6_, symObjAddr: 0xB70, symBinAddr: 0x100004AC0, symSize: 0x30 }
  - { offsetInCU: 0xAEA9, offset: 0xAEA9, size: 0x8, addend: 0x0, symName: __ZNSt3__128__exception_guard_exceptionsINS_6vectorI5TokenNS_9allocatorIS2_EEE16__destroy_vectorEEC2B7v160006ES6_, symObjAddr: 0xBA0, symBinAddr: 0x100004AF0, symSize: 0x20 }
  - { offsetInCU: 0xAEE1, offset: 0xAEE1, size: 0x8, addend: 0x0, symName: __ZNSt3__16vectorI5TokenNS_9allocatorIS1_EEE16__destroy_vectorC2ERS4_, symObjAddr: 0xBC0, symBinAddr: 0x100004B10, symSize: 0x20 }
  - { offsetInCU: 0xAF1A, offset: 0xAF1A, size: 0x8, addend: 0x0, symName: __ZNKSt3__16vectorI5TokenNS_9allocatorIS1_EEE8max_sizeEv, symObjAddr: 0xBE0, symBinAddr: 0x100004B30, symSize: 0x60 }
  - { offsetInCU: 0xAF42, offset: 0xAF42, size: 0x8, addend: 0x0, symName: __ZNKSt3__16vectorI5TokenNS_9allocatorIS1_EEE20__throw_length_errorB7v160006Ev, symObjAddr: 0xC40, symBinAddr: 0x100004B90, symSize: 0x20 }
  - { offsetInCU: 0xAF68, offset: 0xAF68, size: 0x8, addend: 0x0, symName: __ZNSt3__16vectorI5TokenNS_9allocatorIS1_EEE7__allocB7v160006Ev, symObjAddr: 0xCA0, symBinAddr: 0x100004BF0, symSize: 0x20 }
  - { offsetInCU: 0xAF8E, offset: 0xAF8E, size: 0x8, addend: 0x0, symName: __ZNSt3__16vectorI5TokenNS_9allocatorIS1_EEE9__end_capB7v160006Ev, symObjAddr: 0xCC0, symBinAddr: 0x100004C10, symSize: 0x20 }
  - { offsetInCU: 0xAFB4, offset: 0xAFB4, size: 0x8, addend: 0x0, symName: __ZNKSt3__16vectorI5TokenNS_9allocatorIS1_EEE14__annotate_newB7v160006Em, symObjAddr: 0xCE0, symBinAddr: 0x100004C30, symSize: 0xA0 }
  - { offsetInCU: 0xAFE9, offset: 0xAFE9, size: 0x8, addend: 0x0, symName: __ZNSt3__116allocator_traitsINS_9allocatorI5TokenEEE8max_sizeB7v160006IS3_vEEmRKS3_, symObjAddr: 0xDB0, symBinAddr: 0x100004D00, symSize: 0x20 }
  - { offsetInCU: 0xB017, offset: 0xB017, size: 0x8, addend: 0x0, symName: __ZNSt3__114numeric_limitsIlE3maxB7v160006Ev, symObjAddr: 0xDD0, symBinAddr: 0x100004D20, symSize: 0x10 }
  - { offsetInCU: 0xB03F, offset: 0xB03F, size: 0x8, addend: 0x0, symName: __ZNKSt3__16__lessImmEclB7v160006ERKmS3_, symObjAddr: 0xE40, symBinAddr: 0x100004D90, symSize: 0x30 }
  - { offsetInCU: 0xB081, offset: 0xB081, size: 0x8, addend: 0x0, symName: __ZNKSt3__19allocatorI5TokenE8max_sizeB7v160006Ev, symObjAddr: 0xE70, symBinAddr: 0x100004DC0, symSize: 0x20 }
  - { offsetInCU: 0xB0A7, offset: 0xB0A7, size: 0x8, addend: 0x0, symName: __ZNSt3__123__libcpp_numeric_limitsIlLb1EE3maxB7v160006Ev, symObjAddr: 0xE90, symBinAddr: 0x100004DE0, symSize: 0x10 }
  - { offsetInCU: 0xB0BB, offset: 0xB0BB, size: 0x8, addend: 0x0, symName: __ZNSt12length_errorC1B7v160006EPKc, symObjAddr: 0xF10, symBinAddr: 0x100004E60, symSize: 0x30 }
  - { offsetInCU: 0xB0F3, offset: 0xB0F3, size: 0x8, addend: 0x0, symName: __ZNSt12length_errorC2B7v160006EPKc, symObjAddr: 0xF40, symBinAddr: 0x100004E90, symSize: 0x40 }
  - { offsetInCU: 0xB12B, offset: 0xB12B, size: 0x8, addend: 0x0, symName: __ZNSt3__19allocatorI5TokenE8allocateB7v160006Em, symObjAddr: 0xF80, symBinAddr: 0x100004ED0, symSize: 0x50 }
  - { offsetInCU: 0xB15F, offset: 0xB15F, size: 0x8, addend: 0x0, symName: __ZNSt3__117__compressed_pairIP5TokenNS_9allocatorIS1_EEE6secondB7v160006Ev, symObjAddr: 0x10E0, symBinAddr: 0x100005030, symSize: 0x20 }
  - { offsetInCU: 0xB185, offset: 0xB185, size: 0x8, addend: 0x0, symName: __ZNSt3__122__compressed_pair_elemINS_9allocatorI5TokenEELi1ELb1EE5__getB7v160006Ev, symObjAddr: 0x1100, symBinAddr: 0x100005050, symSize: 0x10 }
  - { offsetInCU: 0xB1AB, offset: 0xB1AB, size: 0x8, addend: 0x0, symName: __ZNSt3__117__compressed_pairIP5TokenNS_9allocatorIS1_EEE5firstB7v160006Ev, symObjAddr: 0x1110, symBinAddr: 0x100005060, symSize: 0x20 }
  - { offsetInCU: 0xB1D1, offset: 0xB1D1, size: 0x8, addend: 0x0, symName: __ZNSt3__122__compressed_pair_elemIP5TokenLi0ELb0EE5__getB7v160006Ev, symObjAddr: 0x1130, symBinAddr: 0x100005080, symSize: 0x10 }
  - { offsetInCU: 0xB1F7, offset: 0xB1F7, size: 0x8, addend: 0x0, symName: __ZNKSt3__16vectorI5TokenNS_9allocatorIS1_EEE31__annotate_contiguous_containerB7v160006EPKvS6_S6_S6_, symObjAddr: 0x1140, symBinAddr: 0x100005090, symSize: 0x20 }
  - { offsetInCU: 0xB24D, offset: 0xB24D, size: 0x8, addend: 0x0, symName: __ZNKSt3__16vectorI5TokenNS_9allocatorIS1_EEE4dataB7v160006Ev, symObjAddr: 0x1160, symBinAddr: 0x1000050B0, symSize: 0x20 }
  - { offsetInCU: 0xB273, offset: 0xB273, size: 0x8, addend: 0x0, symName: __ZNKSt3__16vectorI5TokenNS_9allocatorIS1_EEE8capacityB7v160006Ev, symObjAddr: 0x1180, symBinAddr: 0x1000050D0, symSize: 0x40 }
  - { offsetInCU: 0xB299, offset: 0xB299, size: 0x8, addend: 0x0, symName: __ZNKSt3__16vectorI5TokenNS_9allocatorIS1_EEE9__end_capB7v160006Ev, symObjAddr: 0x11D0, symBinAddr: 0x100005120, symSize: 0x20 }
  - { offsetInCU: 0xB2BF, offset: 0xB2BF, size: 0x8, addend: 0x0, symName: __ZNKSt3__117__compressed_pairIP5TokenNS_9allocatorIS1_EEE5firstB7v160006Ev, symObjAddr: 0x11F0, symBinAddr: 0x100005140, symSize: 0x20 }
  - { offsetInCU: 0xB2E5, offset: 0xB2E5, size: 0x8, addend: 0x0, symName: __ZNKSt3__122__compressed_pair_elemIP5TokenLi0ELb0EE5__getB7v160006Ev, symObjAddr: 0x1210, symBinAddr: 0x100005160, symSize: 0x10 }
  - { offsetInCU: 0xB324, offset: 0xB324, size: 0x8, addend: 0x0, symName: __ZNSt3__16vectorI5TokenNS_9allocatorIS1_EEE21_ConstructTransactionC1B7v160006ERS4_m, symObjAddr: 0x1220, symBinAddr: 0x100005170, symSize: 0x30 }
  - { offsetInCU: 0xB36C, offset: 0xB36C, size: 0x8, addend: 0x0, symName: __ZNSt3__16vectorI5TokenNS_9allocatorIS1_EEE21_ConstructTransactionD1B7v160006Ev, symObjAddr: 0x1350, symBinAddr: 0x1000052A0, symSize: 0x20 }
  - { offsetInCU: 0xB396, offset: 0xB396, size: 0x8, addend: 0x0, symName: __ZNSt3__16vectorI5TokenNS_9allocatorIS1_EEE21_ConstructTransactionC2B7v160006ERS4_m, symObjAddr: 0x1370, symBinAddr: 0x1000052C0, symSize: 0x40 }
  - { offsetInCU: 0xB3DE, offset: 0xB3DE, size: 0x8, addend: 0x0, symName: __ZNSt3__129_AllocatorDestroyRangeReverseINS_9allocatorI5TokenEEPS2_EC1B7v160006ERS3_RS4_S7_, symObjAddr: 0x1410, symBinAddr: 0x100005360, symSize: 0x40 }
  - { offsetInCU: 0xB435, offset: 0xB435, size: 0x8, addend: 0x0, symName: __ZNSt3__116allocator_traitsINS_9allocatorI5TokenEEE9constructB7v160006IS2_JRS2_EvEEvRS3_PT_DpOT0_, symObjAddr: 0x1450, symBinAddr: 0x1000053A0, symSize: 0x30 }
  - { offsetInCU: 0xB48C, offset: 0xB48C, size: 0x8, addend: 0x0, symName: __ZNSt3__128__exception_guard_exceptionsINS_29_AllocatorDestroyRangeReverseINS_9allocatorI5TokenEEPS3_EEE10__completeB7v160006Ev, symObjAddr: 0x1480, symBinAddr: 0x1000053D0, symSize: 0x20 }
  - { offsetInCU: 0xB4B2, offset: 0xB4B2, size: 0x8, addend: 0x0, symName: __ZNSt3__128__exception_guard_exceptionsINS_29_AllocatorDestroyRangeReverseINS_9allocatorI5TokenEEPS3_EEED1B7v160006Ev, symObjAddr: 0x14A0, symBinAddr: 0x1000053F0, symSize: 0x20 }
  - { offsetInCU: 0xB4DC, offset: 0xB4DC, size: 0x8, addend: 0x0, symName: __ZNSt3__128__exception_guard_exceptionsINS_29_AllocatorDestroyRangeReverseINS_9allocatorI5TokenEEPS3_EEEC1B7v160006ES6_, symObjAddr: 0x14C0, symBinAddr: 0x100005410, symSize: 0x40 }
  - { offsetInCU: 0xB514, offset: 0xB514, size: 0x8, addend: 0x0, symName: __ZNSt3__128__exception_guard_exceptionsINS_29_AllocatorDestroyRangeReverseINS_9allocatorI5TokenEEPS3_EEEC2B7v160006ES6_, symObjAddr: 0x1500, symBinAddr: 0x100005450, symSize: 0x30 }
  - { offsetInCU: 0xB54C, offset: 0xB54C, size: 0x8, addend: 0x0, symName: __ZNSt3__129_AllocatorDestroyRangeReverseINS_9allocatorI5TokenEEPS2_EC2B7v160006ERS3_RS4_S7_, symObjAddr: 0x1530, symBinAddr: 0x100005480, symSize: 0x40 }
  - { offsetInCU: 0xB5A3, offset: 0xB5A3, size: 0x8, addend: 0x0, symName: __ZNSt3__19allocatorI5TokenE9constructB7v160006IS1_JRS1_EEEvPT_DpOT0_, symObjAddr: 0x1570, symBinAddr: 0x1000054C0, symSize: 0x30 }
  - { offsetInCU: 0xB5F9, offset: 0xB5F9, size: 0x8, addend: 0x0, symName: __ZN5TokenC1ERKS_, symObjAddr: 0x15A0, symBinAddr: 0x1000054F0, symSize: 0x30 }
  - { offsetInCU: 0xB62E, offset: 0xB62E, size: 0x8, addend: 0x0, symName: __ZN5TokenC2ERKS_, symObjAddr: 0x15D0, symBinAddr: 0x100005520, symSize: 0x50 }
  - { offsetInCU: 0xB663, offset: 0xB663, size: 0x8, addend: 0x0, symName: __ZNSt3__128__exception_guard_exceptionsINS_29_AllocatorDestroyRangeReverseINS_9allocatorI5TokenEEPS3_EEED2B7v160006Ev, symObjAddr: 0x1620, symBinAddr: 0x100005570, symSize: 0x40 }
  - { offsetInCU: 0xB68D, offset: 0xB68D, size: 0x8, addend: 0x0, symName: __ZNKSt3__129_AllocatorDestroyRangeReverseINS_9allocatorI5TokenEEPS2_EclB7v160006Ev, symObjAddr: 0x1660, symBinAddr: 0x1000055B0, symSize: 0x60 }
  - { offsetInCU: 0xB6B3, offset: 0xB6B3, size: 0x8, addend: 0x0, symName: __ZNSt3__116reverse_iteratorIP5TokenEC1B7v160006ES2_, symObjAddr: 0x1730, symBinAddr: 0x100005680, symSize: 0x30 }
  - { offsetInCU: 0xB6EB, offset: 0xB6EB, size: 0x8, addend: 0x0, symName: __ZNSt3__116allocator_traitsINS_9allocatorI5TokenEEE7destroyB7v160006IS2_vEEvRS3_PT_, symObjAddr: 0x17A0, symBinAddr: 0x1000056F0, symSize: 0x30 }
  - { offsetInCU: 0xB728, offset: 0xB728, size: 0x8, addend: 0x0, symName: __ZNSt3__116reverse_iteratorIP5TokenEppB7v160006Ev, symObjAddr: 0x17F0, symBinAddr: 0x100005740, symSize: 0x20 }
  - { offsetInCU: 0xB74E, offset: 0xB74E, size: 0x8, addend: 0x0, symName: __ZNKSt3__116reverse_iteratorIP5TokenE4baseB7v160006Ev, symObjAddr: 0x1810, symBinAddr: 0x100005760, symSize: 0x20 }
  - { offsetInCU: 0xB774, offset: 0xB774, size: 0x8, addend: 0x0, symName: __ZNSt3__19allocatorI5TokenE7destroyB7v160006EPS1_, symObjAddr: 0x1830, symBinAddr: 0x100005780, symSize: 0x20 }
  - { offsetInCU: 0xB7AD, offset: 0xB7AD, size: 0x8, addend: 0x0, symName: __ZNSt3__119__to_address_helperINS_16reverse_iteratorIP5TokenEEvE6__callB7v160006ERKS4_, symObjAddr: 0x1850, symBinAddr: 0x1000057A0, symSize: 0x40 }
  - { offsetInCU: 0xB7D0, offset: 0xB7D0, size: 0x8, addend: 0x0, symName: __ZNKSt3__116reverse_iteratorIP5TokenEptB7v160006Ev, symObjAddr: 0x1890, symBinAddr: 0x1000057E0, symSize: 0x20 }
  - { offsetInCU: 0xB7F6, offset: 0xB7F6, size: 0x8, addend: 0x0, symName: __ZNKSt3__116reverse_iteratorIP5TokenEdeB7v160006Ev, symObjAddr: 0x18B0, symBinAddr: 0x100005800, symSize: 0x30 }
  - { offsetInCU: 0xB82A, offset: 0xB82A, size: 0x8, addend: 0x0, symName: __ZNSt3__116reverse_iteratorIP5TokenEC2B7v160006ES2_, symObjAddr: 0x18E0, symBinAddr: 0x100005830, symSize: 0x30 }
  - { offsetInCU: 0xB862, offset: 0xB862, size: 0x8, addend: 0x0, symName: __ZNSt3__16vectorI5TokenNS_9allocatorIS1_EEE21_ConstructTransactionD2B7v160006Ev, symObjAddr: 0x1910, symBinAddr: 0x100005860, symSize: 0x20 }
  - { offsetInCU: 0xB88C, offset: 0xB88C, size: 0x8, addend: 0x0, symName: __ZNSt3__128__exception_guard_exceptionsINS_6vectorI5TokenNS_9allocatorIS2_EEE16__destroy_vectorEED2B7v160006Ev, symObjAddr: 0x1930, symBinAddr: 0x100005880, symSize: 0x40 }
  - { offsetInCU: 0xB8B6, offset: 0xB8B6, size: 0x8, addend: 0x0, symName: __ZNSt3__16vectorI5TokenNS_9allocatorIS1_EEE16__destroy_vectorclB7v160006Ev, symObjAddr: 0x1970, symBinAddr: 0x1000058C0, symSize: 0x90 }
  - { offsetInCU: 0xB8DC, offset: 0xB8DC, size: 0x8, addend: 0x0, symName: __ZNKSt3__16vectorI5TokenNS_9allocatorIS1_EEE17__annotate_deleteB7v160006Ev, symObjAddr: 0x1A00, symBinAddr: 0x100005950, symSize: 0xB0 }
  - { offsetInCU: 0xB902, offset: 0xB902, size: 0x8, addend: 0x0, symName: __ZNSt3__16vectorI5TokenNS_9allocatorIS1_EEE7__clearB7v160006Ev, symObjAddr: 0x1AC0, symBinAddr: 0x100005A10, symSize: 0x20 }
  - { offsetInCU: 0xB928, offset: 0xB928, size: 0x8, addend: 0x0, symName: __ZNSt3__116allocator_traitsINS_9allocatorI5TokenEEE10deallocateB7v160006ERS3_PS2_m, symObjAddr: 0x1AE0, symBinAddr: 0x100005A30, symSize: 0x30 }
  - { offsetInCU: 0xB96A, offset: 0xB96A, size: 0x8, addend: 0x0, symName: __ZNSt3__16vectorI5TokenNS_9allocatorIS1_EEE22__base_destruct_at_endB7v160006EPS1_, symObjAddr: 0x1B10, symBinAddr: 0x100005A60, symSize: 0x80 }
  - { offsetInCU: 0xB9AE, offset: 0xB9AE, size: 0x8, addend: 0x0, symName: __ZNSt3__19allocatorI5TokenE10deallocateB7v160006EPS1_m, symObjAddr: 0x1B90, symBinAddr: 0x100005AE0, symSize: 0x50 }
  - { offsetInCU: 0xB9F0, offset: 0xB9F0, size: 0x8, addend: 0x0, symName: __ZN6Parser5matchE9TokenType, symObjAddr: 0x1CE0, symBinAddr: 0x100005C30, symSize: 0x80 }
  - { offsetInCU: 0xBA24, offset: 0xBA24, size: 0x8, addend: 0x0, symName: __ZN6Parser6idListEv, symObjAddr: 0x1D60, symBinAddr: 0x100005CB0, symSize: 0x60 }
  - { offsetInCU: 0xBA4A, offset: 0xBA4A, size: 0x8, addend: 0x0, symName: __ZNSt3__113basic_ostreamIcNS_11char_traitsIcEEElsB7v160006EPFRS3_S4_E, symObjAddr: 0x1E00, symBinAddr: 0x100005D50, symSize: 0x20 }
  - { offsetInCU: 0xBA7E, offset: 0xBA7E, size: 0x8, addend: 0x0, symName: __ZNK6Parser9tokenTypeEv, symObjAddr: 0x1E70, symBinAddr: 0x100005DC0, symSize: 0x30 }
  - { offsetInCU: 0xBAA4, offset: 0xBAA4, size: 0x8, addend: 0x0, symName: __ZN6Parser12advanceTokenEv, symObjAddr: 0x1EA0, symBinAddr: 0x100005DF0, symSize: 0x50 }
  - { offsetInCU: 0xBACA, offset: 0xBACA, size: 0x8, addend: 0x0, symName: __ZN6Parser10throwErrorEv, symObjAddr: 0x1EF0, symBinAddr: 0x100005E40, symSize: 0x40 }
  - { offsetInCU: 0xBAF0, offset: 0xBAF0, size: 0x8, addend: 0x0, symName: __ZNSt3__111char_traitsIcE6lengthEPKc, symObjAddr: 0x2120, symBinAddr: 0x100006070, symSize: 0x30 }
  - { offsetInCU: 0xBB31, offset: 0xBB31, size: 0x8, addend: 0x0, symName: __ZNKSt3__113basic_ostreamIcNS_11char_traitsIcEEE6sentrycvbB7v160006Ev, symObjAddr: 0x2150, symBinAddr: 0x1000060A0, symSize: 0x20 }
  - { offsetInCU: 0xBB57, offset: 0xBB57, size: 0x8, addend: 0x0, symName: __ZNSt3__119ostreambuf_iteratorIcNS_11char_traitsIcEEEC1B7v160006ERNS_13basic_ostreamIcS2_EE, symObjAddr: 0x2390, symBinAddr: 0x1000062E0, symSize: 0x30 }
  - { offsetInCU: 0xBB8F, offset: 0xBB8F, size: 0x8, addend: 0x0, symName: __ZNKSt3__18ios_base5flagsB7v160006Ev, symObjAddr: 0x23C0, symBinAddr: 0x100006310, symSize: 0x20 }
  - { offsetInCU: 0xBBB7, offset: 0xBBB7, size: 0x8, addend: 0x0, symName: __ZNKSt3__19basic_iosIcNS_11char_traitsIcEEE4fillB7v160006Ev, symObjAddr: 0x23E0, symBinAddr: 0x100006330, symSize: 0x70 }
  - { offsetInCU: 0xBBDF, offset: 0xBBDF, size: 0x8, addend: 0x0, symName: __ZNKSt3__119ostreambuf_iteratorIcNS_11char_traitsIcEEE6failedB7v160006Ev, symObjAddr: 0x2450, symBinAddr: 0x1000063A0, symSize: 0x20 }
  - { offsetInCU: 0xBC05, offset: 0xBC05, size: 0x8, addend: 0x0, symName: __ZNSt3__19basic_iosIcNS_11char_traitsIcEEE8setstateB7v160006Ej, symObjAddr: 0x2470, symBinAddr: 0x1000063C0, symSize: 0x30 }
  - { offsetInCU: 0xBC3A, offset: 0xBC3A, size: 0x8, addend: 0x0, symName: __ZNKSt3__18ios_base5widthB7v160006Ev, symObjAddr: 0x24A0, symBinAddr: 0x1000063F0, symSize: 0x20 }
  - { offsetInCU: 0xBC62, offset: 0xBC62, size: 0x8, addend: 0x0, symName: __ZNSt3__115basic_streambufIcNS_11char_traitsIcEEE5sputnB7v160006EPKcl, symObjAddr: 0x24C0, symBinAddr: 0x100006410, symSize: 0x30 }
  - { offsetInCU: 0xBCA4, offset: 0xBCA4, size: 0x8, addend: 0x0, symName: __ZNSt3__112basic_stringIcNS_11char_traitsIcEENS_9allocatorIcEEEC1B7v160006Emc, symObjAddr: 0x24F0, symBinAddr: 0x100006440, symSize: 0x30 }
  - { offsetInCU: 0xBCEC, offset: 0xBCEC, size: 0x8, addend: 0x0, symName: __ZNSt3__112basic_stringIcNS_11char_traitsIcEENS_9allocatorIcEEE4dataB7v160006Ev, symObjAddr: 0x2520, symBinAddr: 0x100006470, symSize: 0x30 }
  - { offsetInCU: 0xBD12, offset: 0xBD12, size: 0x8, addend: 0x0, symName: __ZNSt3__18ios_base5widthB7v160006El, symObjAddr: 0x2550, symBinAddr: 0x1000064A0, symSize: 0x30 }
  - { offsetInCU: 0xBD58, offset: 0xBD58, size: 0x8, addend: 0x0, symName: __ZNSt3__112basic_stringIcNS_11char_traitsIcEENS_9allocatorIcEEEC2B7v160006Emc, symObjAddr: 0x2580, symBinAddr: 0x1000064D0, symSize: 0x50 }
  - { offsetInCU: 0xBDA5, offset: 0xBDA5, size: 0x8, addend: 0x0, symName: __ZNSt3__117__compressed_pairINS_12basic_stringIcNS_11char_traitsIcEENS_9allocatorIcEEE5__repES5_EC1B7v160006INS_18__default_init_tagESA_EEOT_OT0_, symObjAddr: 0x25D0, symBinAddr: 0x100006520, symSize: 0x30 }
  - { offsetInCU: 0xBDFD, offset: 0xBDFD, size: 0x8, addend: 0x0, symName: __ZNSt3__117__compressed_pairINS_12basic_stringIcNS_11char_traitsIcEENS_9allocatorIcEEE5__repES5_EC2B7v160006INS_18__default_init_tagESA_EEOT_OT0_, symObjAddr: 0x2610, symBinAddr: 0x100006560, symSize: 0x30 }
  - { offsetInCU: 0xBE55, offset: 0xBE55, size: 0x8, addend: 0x0, symName: __ZNSt3__122__compressed_pair_elemINS_12basic_stringIcNS_11char_traitsIcEENS_9allocatorIcEEE5__repELi0ELb0EEC2B7v160006ENS_18__default_init_tagE, symObjAddr: 0x2640, symBinAddr: 0x100006590, symSize: 0x10 }
  - { offsetInCU: 0xBE8A, offset: 0xBE8A, size: 0x8, addend: 0x0, symName: __ZNSt3__122__compressed_pair_elemINS_9allocatorIcEELi1ELb1EEC2B7v160006ENS_18__default_init_tagE, symObjAddr: 0x2650, symBinAddr: 0x1000065A0, symSize: 0x20 }
  - { offsetInCU: 0xBEBF, offset: 0xBEBF, size: 0x8, addend: 0x0, symName: __ZNSt3__19allocatorIcEC2B7v160006Ev, symObjAddr: 0x2670, symBinAddr: 0x1000065C0, symSize: 0x20 }
  - { offsetInCU: 0xBEE9, offset: 0xBEE9, size: 0x8, addend: 0x0, symName: __ZNSt3__116__non_trivial_ifILb1ENS_9allocatorIcEEEC2B7v160006Ev, symObjAddr: 0x2690, symBinAddr: 0x1000065E0, symSize: 0x10 }
  - { offsetInCU: 0xBF13, offset: 0xBF13, size: 0x8, addend: 0x0, symName: __ZNSt3__112basic_stringIcNS_11char_traitsIcEENS_9allocatorIcEEE13__get_pointerB7v160006Ev, symObjAddr: 0x26B0, symBinAddr: 0x100006600, symSize: 0x50 }
  - { offsetInCU: 0xBF39, offset: 0xBF39, size: 0x8, addend: 0x0, symName: __ZNKSt3__112basic_stringIcNS_11char_traitsIcEENS_9allocatorIcEEE9__is_longB7v160006Ev, symObjAddr: 0x2700, symBinAddr: 0x100006650, symSize: 0x30 }
  - { offsetInCU: 0xBF5F, offset: 0xBF5F, size: 0x8, addend: 0x0, symName: __ZNSt3__112basic_stringIcNS_11char_traitsIcEENS_9allocatorIcEEE18__get_long_pointerB7v160006Ev, symObjAddr: 0x2730, symBinAddr: 0x100006680, symSize: 0x20 }
  - { offsetInCU: 0xBF85, offset: 0xBF85, size: 0x8, addend: 0x0, symName: __ZNSt3__112basic_stringIcNS_11char_traitsIcEENS_9allocatorIcEEE19__get_short_pointerB7v160006Ev, symObjAddr: 0x2750, symBinAddr: 0x1000066A0, symSize: 0x30 }
  - { offsetInCU: 0xBFAB, offset: 0xBFAB, size: 0x8, addend: 0x0, symName: __ZNKSt3__117__compressed_pairINS_12basic_stringIcNS_11char_traitsIcEENS_9allocatorIcEEE5__repES5_E5firstB7v160006Ev, symObjAddr: 0x2780, symBinAddr: 0x1000066D0, symSize: 0x20 }
  - { offsetInCU: 0xBFD1, offset: 0xBFD1, size: 0x8, addend: 0x0, symName: __ZNKSt3__122__compressed_pair_elemINS_12basic_stringIcNS_11char_traitsIcEENS_9allocatorIcEEE5__repELi0ELb0EE5__getB7v160006Ev, symObjAddr: 0x27A0, symBinAddr: 0x1000066F0, symSize: 0x10 }
  - { offsetInCU: 0xBFF7, offset: 0xBFF7, size: 0x8, addend: 0x0, symName: __ZNSt3__117__compressed_pairINS_12basic_stringIcNS_11char_traitsIcEENS_9allocatorIcEEE5__repES5_E5firstB7v160006Ev, symObjAddr: 0x27B0, symBinAddr: 0x100006700, symSize: 0x20 }
  - { offsetInCU: 0xC01D, offset: 0xC01D, size: 0x8, addend: 0x0, symName: __ZNSt3__122__compressed_pair_elemINS_12basic_stringIcNS_11char_traitsIcEENS_9allocatorIcEEE5__repELi0ELb0EE5__getB7v160006Ev, symObjAddr: 0x27D0, symBinAddr: 0x100006720, symSize: 0x10 }
  - { offsetInCU: 0xC043, offset: 0xC043, size: 0x8, addend: 0x0, symName: __ZNSt3__114pointer_traitsIPcE10pointer_toB7v160006ERc, symObjAddr: 0x27E0, symBinAddr: 0x100006730, symSize: 0x10 }
  - { offsetInCU: 0xC066, offset: 0xC066, size: 0x8, addend: 0x0, symName: __ZNSt3__119ostreambuf_iteratorIcNS_11char_traitsIcEEEC2B7v160006ERNS_13basic_ostreamIcS2_EE, symObjAddr: 0x27F0, symBinAddr: 0x100006740, symSize: 0x50 }
  - { offsetInCU: 0xC09E, offset: 0xC09E, size: 0x8, addend: 0x0, symName: __ZNKSt3__19basic_iosIcNS_11char_traitsIcEEE5rdbufB7v160006Ev, symObjAddr: 0x2840, symBinAddr: 0x100006790, symSize: 0x20 }
  - { offsetInCU: 0xC0C6, offset: 0xC0C6, size: 0x8, addend: 0x0, symName: __ZNKSt3__18ios_base5rdbufB7v160006Ev, symObjAddr: 0x2860, symBinAddr: 0x1000067B0, symSize: 0x20 }
  - { offsetInCU: 0xC0EC, offset: 0xC0EC, size: 0x8, addend: 0x0, symName: __ZNSt3__111char_traitsIcE11eq_int_typeEii, symObjAddr: 0x2880, symBinAddr: 0x1000067D0, symSize: 0x20 }
  - { offsetInCU: 0xC11D, offset: 0xC11D, size: 0x8, addend: 0x0, symName: __ZNSt3__111char_traitsIcE3eofEv, symObjAddr: 0x28A0, symBinAddr: 0x1000067F0, symSize: 0x10 }
  - { offsetInCU: 0xC131, offset: 0xC131, size: 0x8, addend: 0x0, symName: __ZNKSt3__19basic_iosIcNS_11char_traitsIcEEE5widenB7v160006Ec, symObjAddr: 0x28B0, symBinAddr: 0x100006800, symSize: 0x80 }
  - { offsetInCU: 0xC19F, offset: 0xC19F, size: 0x8, addend: 0x0, symName: __ZNKSt3__15ctypeIcE5widenB7v160006Ec, symObjAddr: 0x2960, symBinAddr: 0x1000068B0, symSize: 0x30 }
  - { offsetInCU: 0xC1D4, offset: 0xC1D4, size: 0x8, addend: 0x0, symName: __ZNSt3__18ios_base8setstateB7v160006Ej, symObjAddr: 0x2990, symBinAddr: 0x1000068E0, symSize: 0x30 }
  - { offsetInCU: 0xC20B, offset: 0xC20B, size: 0x8, addend: 0x0, symName: __ZNKSt3__16vectorI5TokenNS_9allocatorIS1_EEE2atEm, symObjAddr: 0x29E0, symBinAddr: 0x100006930, symSize: 0x60 }
  - { offsetInCU: 0xC242, offset: 0xC242, size: 0x8, addend: 0x0, symName: __ZNK5Token7getTypeEv, symObjAddr: 0x2A40, symBinAddr: 0x100006990, symSize: 0x10 }
  - { offsetInCU: 0xC268, offset: 0xC268, size: 0x8, addend: 0x0, symName: __ZNKSt3__16vectorI5TokenNS_9allocatorIS1_EEE20__throw_out_of_rangeB7v160006Ev, symObjAddr: 0x2A50, symBinAddr: 0x1000069A0, symSize: 0x20 }
  - { offsetInCU: 0xC28E, offset: 0xC28E, size: 0x8, addend: 0x0, symName: __ZNSt12out_of_rangeC1B7v160006EPKc, symObjAddr: 0x2AE0, symBinAddr: 0x100006A30, symSize: 0x30 }
  - { offsetInCU: 0xC2C6, offset: 0xC2C6, size: 0x8, addend: 0x0, symName: __ZNSt12out_of_rangeC2B7v160006EPKc, symObjAddr: 0x2B10, symBinAddr: 0x100006A60, symSize: 0x40 }
  - { offsetInCU: 0xC2FE, offset: 0xC2FE, size: 0x8, addend: 0x0, symName: __ZNSt3__16vectorI5TokenNS_9allocatorIS1_EEE5eraseB7v160006ENS_11__wrap_iterIPKS1_EE, symObjAddr: 0x2B50, symBinAddr: 0x100006AA0, symSize: 0xA0 }
  - { offsetInCU: 0xC353, offset: 0xC353, size: 0x8, addend: 0x0, symName: __ZNSt3__16vectorI5TokenNS_9allocatorIS1_EEE5beginB7v160006Ev, symObjAddr: 0x2BF0, symBinAddr: 0x100006B40, symSize: 0x30 }
  - { offsetInCU: 0xC385, offset: 0xC385, size: 0x8, addend: 0x0, symName: __ZNSt3__111__wrap_iterIPK5TokenEC1B7v160006IPS1_EERKNS0_IT_EEPNS_9enable_ifIXsr14is_convertibleIS7_S3_EE5valueEvE4typeE, symObjAddr: 0x2C20, symBinAddr: 0x100006B70, symSize: 0x30 }
  - { offsetInCU: 0xC3D1, offset: 0xC3D1, size: 0x8, addend: 0x0, symName: __ZNKSt3__16vectorI5TokenNS_9allocatorIS1_EEE6cbeginB7v160006Ev, symObjAddr: 0x2C90, symBinAddr: 0x100006BE0, symSize: 0x30 }
  - { offsetInCU: 0xC3F7, offset: 0xC3F7, size: 0x8, addend: 0x0, symName: __ZNSt3__16vectorI5TokenNS_9allocatorIS1_EEE17__destruct_at_endB7v160006EPS1_, symObjAddr: 0x2CC0, symBinAddr: 0x100006C10, symSize: 0x60 }
  - { offsetInCU: 0xC43B, offset: 0xC43B, size: 0x8, addend: 0x0, symName: __ZNSt3__16vectorI5TokenNS_9allocatorIS1_EEE27__invalidate_iterators_pastB7v160006EPS1_, symObjAddr: 0x2D60, symBinAddr: 0x100006CB0, symSize: 0x10 }
  - { offsetInCU: 0xC472, offset: 0xC472, size: 0x8, addend: 0x0, symName: __ZNSt3__16vectorI5TokenNS_9allocatorIS1_EEE11__make_iterB7v160006EPS1_, symObjAddr: 0x2D70, symBinAddr: 0x100006CC0, symSize: 0x30 }
  - { offsetInCU: 0xC4A7, offset: 0xC4A7, size: 0x8, addend: 0x0, symName: __ZNKSt3__111__wrap_iterIPK5TokenE4baseB7v160006Ev, symObjAddr: 0x2DA0, symBinAddr: 0x100006CF0, symSize: 0x20 }
  - { offsetInCU: 0xC4CD, offset: 0xC4CD, size: 0x8, addend: 0x0, symName: __ZNKSt3__16vectorI5TokenNS_9allocatorIS1_EEE5beginB7v160006Ev, symObjAddr: 0x2DC0, symBinAddr: 0x100006D10, symSize: 0x30 }
  - { offsetInCU: 0xC4F5, offset: 0xC4F5, size: 0x8, addend: 0x0, symName: __ZNKSt3__16vectorI5TokenNS_9allocatorIS1_EEE11__make_iterB7v160006EPKS1_, symObjAddr: 0x2DF0, symBinAddr: 0x100006D40, symSize: 0x30 }
  - { offsetInCU: 0xC52A, offset: 0xC52A, size: 0x8, addend: 0x0, symName: __ZNSt3__111__wrap_iterIPK5TokenEC1B7v160006EPKvS3_, symObjAddr: 0x2E20, symBinAddr: 0x100006D70, symSize: 0x30 }
  - { offsetInCU: 0xC570, offset: 0xC570, size: 0x8, addend: 0x0, symName: __ZNSt3__111__wrap_iterIPK5TokenEC2B7v160006EPKvS3_, symObjAddr: 0x2E50, symBinAddr: 0x100006DA0, symSize: 0x20 }
  - { offsetInCU: 0xC5B6, offset: 0xC5B6, size: 0x8, addend: 0x0, symName: __ZNKSt3__16vectorI5TokenNS_9allocatorIS1_EEE17__annotate_shrinkB7v160006Em, symObjAddr: 0x2E70, symBinAddr: 0x100006DC0, symSize: 0xA0 }
  - { offsetInCU: 0xC60E, offset: 0xC60E, size: 0x8, addend: 0x0, symName: __ZNKSt3__111__move_loopINS_17_ClassicAlgPolicyEEclB7v160006IP5TokenS5_S5_EENS_4pairIT_T1_EES7_T0_S8_, symObjAddr: 0x3090, symBinAddr: 0x100006FE0, symSize: 0x80 }
  - { offsetInCU: 0xC67E, offset: 0xC67E, size: 0x8, addend: 0x0, symName: __ZNSt3__18_IterOpsINS_17_ClassicAlgPolicyEE11__iter_moveB7v160006IRP5TokenEENS_9enable_ifIXsr12is_referenceIDTdeclsr3stdE7declvalIRT_EEEEE5valueEDTclsr3stdE4movedeclsr3stdE7declvalIS9_EEEEE4typeEOS8_, symObjAddr: 0x31D0, symBinAddr: 0x100007120, symSize: 0x20 }
  - { offsetInCU: 0xC6AA, offset: 0xC6AA, size: 0x8, addend: 0x0, symName: __ZN5TokenaSEOS_, symObjAddr: 0x31F0, symBinAddr: 0x100007140, symSize: 0x50 }
  - { offsetInCU: 0xC6DB, offset: 0xC6DB, size: 0x8, addend: 0x0, symName: __ZNSt3__18_IterOpsINS_17_ClassicAlgPolicyEE25__validate_iter_referenceB7v160006IRP5TokenEEvv, symObjAddr: 0x3240, symBinAddr: 0x100007190, symSize: 0x10 }
  - { offsetInCU: 0xC6F9, offset: 0xC6F9, size: 0x8, addend: 0x0, symName: __ZNSt3__112basic_stringIcNS_11char_traitsIcEENS_9allocatorIcEEEaSB7v160006EOS5_, symObjAddr: 0x3250, symBinAddr: 0x1000071A0, symSize: 0x30 }
  - { offsetInCU: 0xC72E, offset: 0xC72E, size: 0x8, addend: 0x0, symName: __ZNSt3__112basic_stringIcNS_11char_traitsIcEENS_9allocatorIcEEE13__move_assignB7v160006ERS5_NS_17integral_constantIbLb1EEE, symObjAddr: 0x3280, symBinAddr: 0x1000071D0, symSize: 0xD0 }
  - { offsetInCU: 0xC771, offset: 0xC771, size: 0x8, addend: 0x0, symName: __ZNSt3__116allocator_traitsINS_9allocatorIcEEE10deallocateB7v160006ERS2_Pcm, symObjAddr: 0x3350, symBinAddr: 0x1000072A0, symSize: 0x30 }
  - { offsetInCU: 0xC7B3, offset: 0xC7B3, size: 0x8, addend: 0x0, symName: __ZNSt3__112basic_stringIcNS_11char_traitsIcEENS_9allocatorIcEEE7__allocB7v160006Ev, symObjAddr: 0x3380, symBinAddr: 0x1000072D0, symSize: 0x20 }
  - { offsetInCU: 0xC7D9, offset: 0xC7D9, size: 0x8, addend: 0x0, symName: __ZNKSt3__112basic_stringIcNS_11char_traitsIcEENS_9allocatorIcEEE14__get_long_capB7v160006Ev, symObjAddr: 0x33A0, symBinAddr: 0x1000072F0, symSize: 0x30 }
  - { offsetInCU: 0xC7FF, offset: 0xC7FF, size: 0x8, addend: 0x0, symName: __ZNSt3__112basic_stringIcNS_11char_traitsIcEENS_9allocatorIcEEE19__move_assign_allocB7v160006ERS5_, symObjAddr: 0x33D0, symBinAddr: 0x100007320, symSize: 0x30 }
  - { offsetInCU: 0xC834, offset: 0xC834, size: 0x8, addend: 0x0, symName: __ZNSt3__112basic_stringIcNS_11char_traitsIcEENS_9allocatorIcEEE16__set_short_sizeB7v160006Em, symObjAddr: 0x3400, symBinAddr: 0x100007350, symSize: 0x50 }
  - { offsetInCU: 0xC869, offset: 0xC869, size: 0x8, addend: 0x0, symName: __ZNSt3__111char_traitsIcE6assignERcRKc, symObjAddr: 0x3450, symBinAddr: 0x1000073A0, symSize: 0x20 }
  - { offsetInCU: 0xC89A, offset: 0xC89A, size: 0x8, addend: 0x0, symName: __ZNSt3__19allocatorIcE10deallocateB7v160006EPcm, symObjAddr: 0x3470, symBinAddr: 0x1000073C0, symSize: 0x40 }
  - { offsetInCU: 0xC8DC, offset: 0xC8DC, size: 0x8, addend: 0x0, symName: __ZNSt3__117__compressed_pairINS_12basic_stringIcNS_11char_traitsIcEENS_9allocatorIcEEE5__repES5_E6secondB7v160006Ev, symObjAddr: 0x34B0, symBinAddr: 0x100007400, symSize: 0x20 }
  - { offsetInCU: 0xC902, offset: 0xC902, size: 0x8, addend: 0x0, symName: __ZNSt3__122__compressed_pair_elemINS_9allocatorIcEELi1ELb1EE5__getB7v160006Ev, symObjAddr: 0x34D0, symBinAddr: 0x100007420, symSize: 0x10 }
  - { offsetInCU: 0xC928, offset: 0xC928, size: 0x8, addend: 0x0, symName: __ZNSt3__112basic_stringIcNS_11char_traitsIcEENS_9allocatorIcEEE19__move_assign_allocB7v160006ERS5_NS_17integral_constantIbLb1EEE, symObjAddr: 0x34E0, symBinAddr: 0x100007430, symSize: 0x30 }
  - { offsetInCU: 0xC969, offset: 0xC969, size: 0x8, addend: 0x0, symName: __ZNSt3__118__unwrap_iter_implIP5TokenLb1EE8__unwrapB7v160006ES2_, symObjAddr: 0x3510, symBinAddr: 0x100007460, symSize: 0x20 }
  - { offsetInCU: 0xC991, offset: 0xC991, size: 0x8, addend: 0x0, symName: __ZNSt3__14pairIP5TokenS2_EC1B7v160006IS2_S2_LPv0EEEOT_OT0_, symObjAddr: 0x3530, symBinAddr: 0x100007480, symSize: 0x30 }
  - { offsetInCU: 0xC9EF, offset: 0xC9EF, size: 0x8, addend: 0x0, symName: __ZNSt3__14pairIP5TokenS2_EC2B7v160006IS2_S2_LPv0EEEOT_OT0_, symObjAddr: 0x3560, symBinAddr: 0x1000074B0, symSize: 0x30 }
  - { offsetInCU: 0xCA4D, offset: 0xCA4D, size: 0x8, addend: 0x0, symName: __ZNSt3__118__unwrap_iter_implIP5TokenLb1EE8__rewrapB7v160006ES2_S2_, symObjAddr: 0x3590, symBinAddr: 0x1000074E0, symSize: 0x60 }
  - { offsetInCU: 0xCA7E, offset: 0xCA7E, size: 0x8, addend: 0x0, symName: __ZNSt3__111__wrap_iterIP5TokenEC1B7v160006EPKvS2_, symObjAddr: 0x35F0, symBinAddr: 0x100007540, symSize: 0x30 }
  - { offsetInCU: 0xCAC4, offset: 0xCAC4, size: 0x8, addend: 0x0, symName: __ZNSt3__111__wrap_iterIP5TokenEC2B7v160006EPKvS2_, symObjAddr: 0x3620, symBinAddr: 0x100007570, symSize: 0x20 }
  - { offsetInCU: 0xCB0A, offset: 0xCB0A, size: 0x8, addend: 0x0, symName: __ZNSt3__111__wrap_iterIPK5TokenEC2B7v160006IPS1_EERKNS0_IT_EEPNS_9enable_ifIXsr14is_convertibleIS7_S3_EE5valueEvE4typeE, symObjAddr: 0x3640, symBinAddr: 0x100007590, symSize: 0x40 }
  - { offsetInCU: 0xCB56, offset: 0xCB56, size: 0x8, addend: 0x0, symName: __ZNKSt3__111__wrap_iterIP5TokenE4baseB7v160006Ev, symObjAddr: 0x3680, symBinAddr: 0x1000075D0, symSize: 0x20 }
  - { offsetInCU: 0xCB7C, offset: 0xCB7C, size: 0x8, addend: 0x0, symName: __ZN6ParserD2Ev, symObjAddr: 0x36A0, symBinAddr: 0x1000075F0, symSize: 0x20 }
  - { offsetInCU: 0xCBA8, offset: 0xCBA8, size: 0x8, addend: 0x0, symName: __ZNSt3__112basic_stringIcNS_11char_traitsIcEENS_9allocatorIcEEEC2B7v160006IDnEEPKc, symObjAddr: 0x36C0, symBinAddr: 0x100007610, symSize: 0x60 }
  - { offsetInCU: 0xCBE6, offset: 0xCBE6, size: 0x8, addend: 0x0, symName: __ZNSt3__16vectorI5TokenNS_9allocatorIS1_EEED2B7v160006Ev, symObjAddr: 0x3720, symBinAddr: 0x100007670, symSize: 0x40 }
  - { offsetInCU: 0xCC10, offset: 0xCC10, size: 0x8, addend: 0x0, symName: __ZNSt3__16vectorI5TokenNS_9allocatorIS1_EEEC2B7v160006ESt16initializer_listIS1_E, symObjAddr: 0x3760, symBinAddr: 0x1000076B0, symSize: 0x120 }
  - { offsetInCU: 0xCC60, offset: 0xCC60, size: 0x8, addend: 0x0, symName: __ZNSt3__117__compressed_pairIP5TokenNS_9allocatorIS1_EEEC1B7v160006IDnNS_18__default_init_tagEEEOT_OT0_, symObjAddr: 0x3880, symBinAddr: 0x1000077D0, symSize: 0x30 }
  - { offsetInCU: 0xCCB8, offset: 0xCCB8, size: 0x8, addend: 0x0, symName: __ZNKSt16initializer_listI5TokenE4sizeB7v160006Ev, symObjAddr: 0x38B0, symBinAddr: 0x100007800, symSize: 0x20 }
  - { offsetInCU: 0xCCDE, offset: 0xCCDE, size: 0x8, addend: 0x0, symName: __ZNSt3__16vectorI5TokenNS_9allocatorIS1_EEE18__construct_at_endIPKS1_Li0EEEvT_S8_m, symObjAddr: 0x38D0, symBinAddr: 0x100007820, symSize: 0x90 }
  - { offsetInCU: 0xCD51, offset: 0xCD51, size: 0x8, addend: 0x0, symName: __ZNKSt16initializer_listI5TokenE5beginB7v160006Ev, symObjAddr: 0x3960, symBinAddr: 0x1000078B0, symSize: 0x20 }
  - { offsetInCU: 0xCD77, offset: 0xCD77, size: 0x8, addend: 0x0, symName: __ZNKSt16initializer_listI5TokenE3endB7v160006Ev, symObjAddr: 0x3980, symBinAddr: 0x1000078D0, symSize: 0x20 }
  - { offsetInCU: 0xCD9D, offset: 0xCD9D, size: 0x8, addend: 0x0, symName: __ZNSt3__117__compressed_pairIP5TokenNS_9allocatorIS1_EEEC2B7v160006IDnNS_18__default_init_tagEEEOT_OT0_, symObjAddr: 0x39A0, symBinAddr: 0x1000078F0, symSize: 0x40 }
  - { offsetInCU: 0xCDF5, offset: 0xCDF5, size: 0x8, addend: 0x0, symName: __ZNSt3__122__compressed_pair_elemINS_9allocatorI5TokenEELi1ELb1EEC2B7v160006ENS_18__default_init_tagE, symObjAddr: 0x39E0, symBinAddr: 0x100007930, symSize: 0x20 }
  - { offsetInCU: 0xCE2A, offset: 0xCE2A, size: 0x8, addend: 0x0, symName: __ZNSt3__19allocatorI5TokenEC2B7v160006Ev, symObjAddr: 0x3A00, symBinAddr: 0x100007950, symSize: 0x20 }
  - { offsetInCU: 0xCE54, offset: 0xCE54, size: 0x8, addend: 0x0, symName: __ZNSt3__116__non_trivial_ifILb1ENS_9allocatorI5TokenEEEC2B7v160006Ev, symObjAddr: 0x3A20, symBinAddr: 0x100007970, symSize: 0x10 }
  - { offsetInCU: 0xCE7E, offset: 0xCE7E, size: 0x8, addend: 0x0, symName: __ZNSt3__116allocator_traitsINS_9allocatorI5TokenEEE9constructB7v160006IS2_JRKS2_EvEEvRS3_PT_DpOT0_, symObjAddr: 0x3B30, symBinAddr: 0x100007A80, symSize: 0x30 }
  - { offsetInCU: 0xCED5, offset: 0xCED5, size: 0x8, addend: 0x0, symName: __ZNSt3__19allocatorI5TokenE9constructB7v160006IS1_JRKS1_EEEvPT_DpOT0_, symObjAddr: 0x3B60, symBinAddr: 0x100007AB0, symSize: 0x27 }
...
